; Function Attrs: mustprogress nofree norecurse nosync nounwind willreturn memory(read, inaccessiblemem: none) uwtable
define hidden noundef i32 @_ZNK4cvc58internal6theory5arith6linear15ValueCollection11getVariableEv(ptr nocapture noundef nonnull readonly align 8 dereferenceable(32) %this) local_unnamed_addr #9 align 2 {
entry:
  %0 = load ptr, ptr %this, align 8
  %cmp.i.not.i = icmp eq ptr %0, null
  br i1 %cmp.i.not.i, label %if.else.i, label %_ZNK4cvc58internal6theory5arith6linear15ValueCollection7nonNullEv.exit

if.else.i:                                        ; preds = %entry
  %d_upperBound.i.i = getelementptr inbounds i8, ptr %this, i64 8
  %1 = load ptr, ptr %d_upperBound.i.i, align 8
  %cmp.i1.not.i = icmp eq ptr %1, null
  br i1 %cmp.i1.not.i, label %if.else4.i, label %_ZNK4cvc58internal6theory5arith6linear15ValueCollection7nonNullEv.exit

if.else4.i:                                       ; preds = %if.else.i
  %d_equality.i.i = getelementptr inbounds i8, ptr %this, i64 16
  %2 = load ptr, ptr %d_equality.i.i, align 8
  %cmp.i2.not.i = icmp eq ptr %2, null
  br i1 %cmp.i2.not.i, label %if.else7.i, label %_ZNK4cvc58internal6theory5arith6linear15ValueCollection7nonNullEv.exit

if.else7.i:                                       ; preds = %if.else4.i
  %d_disequality.i.i = getelementptr inbounds i8, ptr %this, i64 24
  %3 = load ptr, ptr %d_disequality.i.i, align 8
  br label %_ZNK4cvc58internal6theory5arith6linear15ValueCollection7nonNullEv.exit

_ZNK4cvc58internal6theory5arith6linear15ValueCollection7nonNullEv.exit: ; preds = %entry, %if.else.i, %if.else4.i, %if.else7.i
  %retval.0.i = phi ptr [ %0, %entry ], [ %1, %if.else.i ], [ %2, %if.else4.i ], [ %3, %if.else7.i ]
  %4 = load i32, ptr %retval.0.i, align 8
  ret i32 %4
}